target datalayout = "e-m:e-p270:32:32-p271:32:32-p272:64:64-i64:64-i128:128-f80:128-n8:16:32:64-S128"
target triple = "x86_64-pc-linux-gnu"

%struct.darktable_t = type { %struct.dt_codepath_t, i32, i32, ptr, ptr, ptr, ptr, ptr, ptr, ptr, ptr, ptr, ptr, ptr, ptr, ptr, ptr, ptr, ptr, ptr, ptr, ptr, ptr, ptr, ptr, ptr, ptr, ptr, ptr, ptr, [64 x %struct.dt_pthread_mutex_t], %struct.dt_pthread_mutex_t, %struct.dt_pthread_mutex_t, %struct.dt_pthread_mutex_t, %struct.dt_pthread_mutex_t, %struct.dt_pthread_mutex_t, ptr, ptr, ptr, ptr, ptr, ptr, ptr, ptr, ptr, ptr, ptr, ptr, ptr, %struct.dt_lua_state_t, ptr, double, ptr, i32, [47 x i32], i32, i32, ptr, ptr, %struct.dt_sys_resources_t, %struct.dt_backthumb_t, %struct.dt_gimp_t }
%struct.dt_codepath_t = type { i8, [3 x i8] }
%struct.dt_pthread_mutex_t = type { %union.pthread_mutex_t }
%union.pthread_mutex_t = type { %struct.__pthread_mutex_s }
%struct.__pthread_mutex_s = type { i32, i32, i32, i32, i32, i16, i16, %struct.__pthread_internal_list }
%struct.__pthread_internal_list = type { ptr, ptr }
%struct.dt_lua_state_t = type { i32 }
%struct.dt_sys_resources_t = type { i64, i64, ptr, ptr, i32 }
%struct.dt_backthumb_t = type { double, double, i32, i32, i32, i32 }
%struct.dt_gimp_t = type { i32, ptr, ptr, i32, i32 }
%struct.dt_datetime_t = type { i32, i32, i32, i32, i32, i32, i32 }

@darktable = external global %struct.darktable_t, align 8

; Function Attrs: nounwind uwtable
define internal i64 @_gdatetime_to_gtimespan(ptr noundef %0) #0 {
  %2 = alloca i64, align 8
  %3 = alloca ptr, align 8
  %4 = alloca i64, align 8
  store ptr %0, ptr %3, align 8, !tbaa !51
  %5 = load ptr, ptr %3, align 8, !tbaa !51
  %6 = icmp ne ptr %5, null
  br i1 %6, label %7, label %13

7:                                                ; preds = %1
  call void @llvm.lifetime.start.p0(i64 8, ptr %4) #7
  %8 = load ptr, ptr %3, align 8, !tbaa !51
  %9 = load ptr, ptr getelementptr inbounds nuw (%struct.darktable_t, ptr @darktable, i32 0, i32 58), align 8, !tbaa !48
  %10 = call i64 @g_date_time_difference(ptr noundef %8, ptr noundef %9)
  store i64 %10, ptr %4, align 8, !tbaa !67
  %11 = load ptr, ptr %3, align 8, !tbaa !51
  call void @g_date_time_unref(ptr noundef %11)
  %12 = load i64, ptr %4, align 8, !tbaa !67
  store i64 %12, ptr %2, align 8
  call void @llvm.lifetime.end.p0(i64 8, ptr %4) #7
  br label %14

13:                                               ; preds = %1
  store i64 0, ptr %2, align 8
  br label %14

14:                                               ; preds = %13, %7
  %15 = load i64, ptr %2, align 8
  ret i64 %15
}

; Function Attrs: nounwind uwtable
define i64 @dt_datetime_numbers_to_gtimespan(ptr noundef %0) #0 {
  %2 = alloca i64, align 8
  %3 = alloca ptr, align 8
  %4 = alloca ptr, align 8
  store ptr %0, ptr %3, align 8, !tbaa !49
  %5 = load ptr, ptr %3, align 8, !tbaa !49
  %6 = icmp ne ptr %5, null
  br i1 %6, label %8, label %7

7:                                                ; preds = %1
  store i64 0, ptr %2, align 8
  br label %32

8:                                                ; preds = %1
  call void @llvm.lifetime.start.p0(i64 8, ptr %4) #7
  %9 = load ptr, ptr getelementptr inbounds nuw (%struct.darktable_t, ptr @darktable, i32 0, i32 57), align 8, !tbaa !6
  %10 = load ptr, ptr %3, align 8, !tbaa !49
  %11 = getelementptr inbounds nuw %struct.dt_datetime_t, ptr %10, i32 0, i32 0
  %12 = load i32, ptr %11, align 4, !tbaa !52
  %13 = load ptr, ptr %3, align 8, !tbaa !49
  %14 = getelementptr inbounds nuw %struct.dt_datetime_t, ptr %13, i32 0, i32 1
  %15 = load i32, ptr %14, align 4, !tbaa !54
  %16 = load ptr, ptr %3, align 8, !tbaa !49
  %17 = getelementptr inbounds nuw %struct.dt_datetime_t, ptr %16, i32 0, i32 2
  %18 = load i32, ptr %17, align 4, !tbaa !55
  %19 = load ptr, ptr %3, align 8, !tbaa !49
  %20 = getelementptr inbounds nuw %struct.dt_datetime_t, ptr %19, i32 0, i32 3
  %21 = load i32, ptr %20, align 4, !tbaa !56
  %22 = load ptr, ptr %3, align 8, !tbaa !49
  %23 = getelementptr inbounds nuw %struct.dt_datetime_t, ptr %22, i32 0, i32 4
  %24 = load i32, ptr %23, align 4, !tbaa !57
  %25 = load ptr, ptr %3, align 8, !tbaa !49
  %26 = getelementptr inbounds nuw %struct.dt_datetime_t, ptr %25, i32 0, i32 5
  %27 = load i32, ptr %26, align 4, !tbaa !58
  %28 = sitofp i32 %27 to double
  %29 = call ptr @g_date_time_new(ptr noundef %9, i32 noundef %12, i32 noundef %15, i32 noundef %18, i32 noundef %21, i32 noundef %24, double noundef %28)
  store ptr %29, ptr %4, align 8, !tbaa !51
  %30 = load ptr, ptr %4, align 8, !tbaa !51
  %31 = call i64 @_gdatetime_to_gtimespan(ptr noundef %30)
  store i64 %31, ptr %2, align 8
  call void @llvm.lifetime.end.p0(i64 8, ptr %4) #7
  br label %32

32:                                               ; preds = %8, %7
  %33 = load i64, ptr %2, align 8
  ret i64 %33
}