; Function Attrs: nounwind uwtable
define i64 @dt_datetime_numbers_to_gtimespan(ptr noundef readonly %0) local_unnamed_addr #0 {
  %.not = icmp eq ptr %0, null
  br i1 %.not, label %_gdatetime_to_gtimespan.exit, label %2

2:                                                ; preds = %1
  %3 = load ptr, ptr getelementptr inbounds nuw (i8, ptr @darktable, i64 3328), align 8, !tbaa !6
  %4 = load i32, ptr %0, align 4, !tbaa !49
  %5 = getelementptr inbounds nuw i8, ptr %0, i64 4
  %6 = load i32, ptr %5, align 4, !tbaa !51
  %7 = getelementptr inbounds nuw i8, ptr %0, i64 8
  %8 = load i32, ptr %7, align 4, !tbaa !52
  %9 = getelementptr inbounds nuw i8, ptr %0, i64 12
  %10 = load i32, ptr %9, align 4, !tbaa !53
  %11 = getelementptr inbounds nuw i8, ptr %0, i64 16
  %12 = load i32, ptr %11, align 4, !tbaa !54
  %13 = getelementptr inbounds nuw i8, ptr %0, i64 20
  %14 = load i32, ptr %13, align 4, !tbaa !55
  %15 = sitofp i32 %14 to double
  %16 = tail call ptr @g_date_time_new(ptr noundef %3, i32 noundef %4, i32 noundef %6, i32 noundef %8, i32 noundef %10, i32 noundef %12, double noundef %15) #7
  %.not.i = icmp eq ptr %16, null
  br i1 %.not.i, label %_gdatetime_to_gtimespan.exit, label %17

17:                                               ; preds = %2
  %18 = load ptr, ptr getelementptr inbounds nuw (i8, ptr @darktable, i64 3336), align 8, !tbaa !48
  %19 = tail call i64 @g_date_time_difference(ptr noundef nonnull %16, ptr noundef %18) #7
  tail call void @g_date_time_unref(ptr noundef nonnull %16) #7
  br label %_gdatetime_to_gtimespan.exit

_gdatetime_to_gtimespan.exit:                     ; preds = %17, %2, %1
  %.0 = phi i64 [ 0, %1 ], [ %19, %17 ], [ 0, %2 ]
  ret i64 %.0
}